; Function Attrs: nounwind sspstrong uwtable
define dso_local i64 @rb_stat_new(ptr noundef readonly captures(address_is_null) %0) local_unnamed_addr #0 {
  %2 = load i64, ptr @rb_cStat, align 8, !tbaa !12
  %3 = tail call i64 @rb_data_typed_object_zalloc(i64 noundef %2, i64 noundef 152, ptr noundef nonnull @stat_data_type) #22
  %4 = inttoptr i64 %3 to ptr
  %5 = getelementptr inbounds nuw i8, ptr %4, i64 24
  %6 = load i64, ptr %5, align 8, !tbaa !21
  %7 = and i64 %6, 2
  %.not.i.i = icmp eq i64 %7, 0
  %8 = getelementptr i8, ptr %4, i64 32
  br i1 %.not.i.i, label %9, label %RTYPEDDATA_GET_DATA.exit.i

9:                                                ; preds = %1
  %10 = load ptr, ptr %8, align 8, !tbaa !24
  br label %RTYPEDDATA_GET_DATA.exit.i

RTYPEDDATA_GET_DATA.exit.i:                       ; preds = %9, %1
  %11 = phi ptr [ %10, %9 ], [ %8, %1 ]
  %.not.i = icmp eq ptr %0, null
  br i1 %.not.i, label %stat_new_0.exit, label %12

12:                                               ; preds = %RTYPEDDATA_GET_DATA.exit.i
  tail call void @llvm.memcpy.p0.p0.i64(ptr noundef nonnull align 8 dereferenceable(144) %11, ptr noundef nonnull readonly align 8 dereferenceable(144) %0, i64 144, i1 false), !tbaa.struct !25
  %13 = getelementptr inbounds nuw i8, ptr %11, i64 144
  store i8 1, ptr %13, align 8, !tbaa !28
  br label %stat_new_0.exit

stat_new_0.exit:                                  ; preds = %RTYPEDDATA_GET_DATA.exit.i, %12
  ret i64 %3
}